; Function Attrs: mustprogress uwtable
define void @_ZN5boost10filesystem6detail15last_write_timeERKNS0_4pathElPNS_6system10error_codeE(ptr noundef nonnull align 8 dereferenceable(32) %0, i64 noundef %1, ptr noundef %2) local_unnamed_addr #5 personality ptr @__gxx_personality_v0 {
  %4 = alloca [2 x %struct.timespec], align 16
  %.not = icmp eq ptr %2, null
  br i1 %.not, label %6, label %5

5:                                                ; preds = %3
  tail call void @llvm.memset.p0.i64(ptr noundef nonnull align 8 dereferenceable(24) %2, i8 0, i64 24, i1 false)
  br label %6

6:                                                ; preds = %5, %3
  call void @llvm.lifetime.start.p0(i64 32, ptr nonnull %4) #27
  call void @llvm.memset.p0.i64(ptr noundef nonnull align 16 dereferenceable(32) %4, i8 0, i64 32, i1 false)
  %7 = getelementptr inbounds nuw i8, ptr %4, i64 8
  store i64 1073741822, ptr %7, align 8, !tbaa !163
  %8 = getelementptr inbounds i8, ptr %4, i64 16
  store i64 %1, ptr %8, align 16, !tbaa !165
  %9 = load ptr, ptr %0, align 8, !tbaa !13
  %10 = call i32 @utimensat(i32 noundef -100, ptr noundef %9, ptr noundef nonnull %4, i32 noundef 0) #27
  %.not5 = icmp eq i32 %10, 0
  br i1 %.not5, label %14, label %11, !prof !32

11:                                               ; preds = %6
  %12 = tail call ptr @__errno_location() #30
  %13 = load i32, ptr %12, align 4, !tbaa !19
  call void @_ZN5boost10filesystem10emit_errorEiRKNS0_4pathEPNS_6system10error_codeEPKc(i32 noundef %13, ptr noundef nonnull align 8 dereferenceable(32) %0, ptr noundef %2, ptr noundef nonnull @.str.17)
  br label %14

14:                                               ; preds = %6, %11
  call void @llvm.lifetime.end.p0(i64 32, ptr nonnull %4) #27
  ret void
}